; ModuleID = '39/365.c'
source_filename = "39/365.c"
target datalayout = "e-m:e-p270:32:32-p271:32:32-p272:64:64-i64:64-f80:128-n8:16:32:64-S128"
target triple = "x86_64-pc-linux-gnu"

%struct.student = type { [30 x i8], i8, i8, i32, i32, i32, i32 }

@.str = private unnamed_addr constant [3 x i8] c"%d\00", align 1
@.str.1 = private unnamed_addr constant [18 x i8] c"%s %d %d %c %c %d\00", align 1
@.str.2 = private unnamed_addr constant [11 x i8] c"%s\0A%ld\0A%ld\00", align 1

; Function Attrs: noinline nounwind uwtable
define dso_local void @main() #0 {
  %1 = alloca [100 x %struct.student], align 16
  %2 = alloca i32, align 4
  %3 = alloca i32, align 4
  %4 = alloca i64, align 8
  %5 = alloca i64, align 8
  %6 = alloca [30 x i8], align 16
  store i64 0, i64* %4, align 8
  store i64 0, i64* %5, align 8
  %7 = call i32 (i8*, ...) @__isoc99_scanf(i8* getelementptr inbounds ([3 x i8], [3 x i8]* @.str, i64 0, i64 0), i32* %2)
  store i32 0, i32* %3, align 4
  br label %8

8:                                                ; preds = %143, %0
  %9 = load i32, i32* %3, align 4
  %10 = load i32, i32* %2, align 4
  %11 = icmp slt i32 %9, %10
  br i1 %11, label %12, label %146

12:                                               ; preds = %8
  %13 = load i32, i32* %3, align 4
  %14 = sext i32 %13 to i64
  %15 = getelementptr inbounds [100 x %struct.student], [100 x %struct.student]* %1, i64 0, i64 %14
  %16 = getelementptr inbounds %struct.student, %struct.student* %15, i32 0, i32 0
  %17 = getelementptr inbounds [30 x i8], [30 x i8]* %16, i64 0, i64 0
  %18 = load i32, i32* %3, align 4
  %19 = sext i32 %18 to i64
  %20 = getelementptr inbounds [100 x %struct.student], [100 x %struct.student]* %1, i64 0, i64 %19
  %21 = getelementptr inbounds %struct.student, %struct.student* %20, i32 0, i32 3
  %22 = load i32, i32* %3, align 4
  %23 = sext i32 %22 to i64
  %24 = getelementptr inbounds [100 x %struct.student], [100 x %struct.student]* %1, i64 0, i64 %23
  %25 = getelementptr inbounds %struct.student, %struct.student* %24, i32 0, i32 4
  %26 = load i32, i32* %3, align 4
  %27 = sext i32 %26 to i64
  %28 = getelementptr inbounds [100 x %struct.student], [100 x %struct.student]* %1, i64 0, i64 %27
  %29 = getelementptr inbounds %struct.student, %struct.student* %28, i32 0, i32 1
  %30 = load i32, i32* %3, align 4
  %31 = sext i32 %30 to i64
  %32 = getelementptr inbounds [100 x %struct.student], [100 x %struct.student]* %1, i64 0, i64 %31
  %33 = getelementptr inbounds %struct.student, %struct.student* %32, i32 0, i32 2
  %34 = load i32, i32* %3, align 4
  %35 = sext i32 %34 to i64
  %36 = getelementptr inbounds [100 x %struct.student], [100 x %struct.student]* %1, i64 0, i64 %35
  %37 = getelementptr inbounds %struct.student, %struct.student* %36, i32 0, i32 5
  %38 = call i32 (i8*, ...) @__isoc99_scanf(i8* getelementptr inbounds ([18 x i8], [18 x i8]* @.str.1, i64 0, i64 0), i8* %17, i32* %21, i32* %25, i8* %29, i8* %33, i32* %37)
  %39 = load i32, i32* %3, align 4
  %40 = sext i32 %39 to i64
  %41 = getelementptr inbounds [100 x %struct.student], [100 x %struct.student]* %1, i64 0, i64 %40
  %42 = getelementptr inbounds %struct.student, %struct.student* %41, i32 0, i32 6
  store i32 0, i32* %42, align 4
  %43 = load i32, i32* %3, align 4
  %44 = sext i32 %43 to i64
  %45 = getelementptr inbounds [100 x %struct.student], [100 x %struct.student]* %1, i64 0, i64 %44
  %46 = getelementptr inbounds %struct.student, %struct.student* %45, i32 0, i32 3
  %47 = load i32, i32* %46, align 16
  %48 = icmp sgt i32 %47, 80
  br i1 %48, label %49, label %63

49:                                               ; preds = %12
  %50 = load i32, i32* %3, align 4
  %51 = sext i32 %50 to i64
  %52 = getelementptr inbounds [100 x %struct.student], [100 x %struct.student]* %1, i64 0, i64 %51
  %53 = getelementptr inbounds %struct.student, %struct.student* %52, i32 0, i32 5
  %54 = load i32, i32* %53, align 8
  %55 = icmp sge i32 %54, 1
  br i1 %55, label %56, label %63

56:                                               ; preds = %49
  %57 = load i32, i32* %3, align 4
  %58 = sext i32 %57 to i64
  %59 = getelementptr inbounds [100 x %struct.student], [100 x %struct.student]* %1, i64 0, i64 %58
  %60 = getelementptr inbounds %struct.student, %struct.student* %59, i32 0, i32 6
  %61 = load i32, i32* %60, align 4
  %62 = add nsw i32 %61, 8000
  store i32 %62, i32* %60, align 4
  br label %63

63:                                               ; preds = %56, %49, %12
  %64 = load i32, i32* %3, align 4
  %65 = sext i32 %64 to i64
  %66 = getelementptr inbounds [100 x %struct.student], [100 x %struct.student]* %1, i64 0, i64 %65
  %67 = getelementptr inbounds %struct.student, %struct.student* %66, i32 0, i32 3
  %68 = load i32, i32* %67, align 16
  %69 = icmp sgt i32 %68, 85
  br i1 %69, label %70, label %84

70:                                               ; preds = %63
  %71 = load i32, i32* %3, align 4
  %72 = sext i32 %71 to i64
  %73 = getelementptr inbounds [100 x %struct.student], [100 x %struct.student]* %1, i64 0, i64 %72
  %74 = getelementptr inbounds %struct.student, %struct.student* %73, i32 0, i32 4
  %75 = load i32, i32* %74, align 4
  %76 = icmp sgt i32 %75, 80
  br i1 %76, label %77, label %84

77:                                               ; preds = %70
  %78 = load i32, i32* %3, align 4
  %79 = sext i32 %78 to i64
  %80 = getelementptr inbounds [100 x %struct.student], [100 x %struct.student]* %1, i64 0, i64 %79
  %81 = getelementptr inbounds %struct.student, %struct.student* %80, i32 0, i32 6
  %82 = load i32, i32* %81, align 4
  %83 = add nsw i32 %82, 4000
  store i32 %83, i32* %81, align 4
  br label %84

84:                                               ; preds = %77, %70, %63
  %85 = load i32, i32* %3, align 4
  %86 = sext i32 %85 to i64
  %87 = getelementptr inbounds [100 x %struct.student], [100 x %struct.student]* %1, i64 0, i64 %86
  %88 = getelementptr inbounds %struct.student, %struct.student* %87, i32 0, i32 3
  %89 = load i32, i32* %88, align 16
  %90 = icmp sgt i32 %89, 90
  br i1 %90, label %91, label %98

91:                                               ; preds = %84
  %92 = load i32, i32* %3, align 4
  %93 = sext i32 %92 to i64
  %94 = getelementptr inbounds [100 x %struct.student], [100 x %struct.student]* %1, i64 0, i64 %93
  %95 = getelementptr inbounds %struct.student, %struct.student* %94, i32 0, i32 6
  %96 = load i32, i32* %95, align 4
  %97 = add nsw i32 %96, 2000
  store i32 %97, i32* %95, align 4
  br label %98

98:                                               ; preds = %91, %84
  %99 = load i32, i32* %3, align 4
  %100 = sext i32 %99 to i64
  %101 = getelementptr inbounds [100 x %struct.student], [100 x %struct.student]* %1, i64 0, i64 %100
  %102 = getelementptr inbounds %struct.student, %struct.student* %101, i32 0, i32 3
  %103 = load i32, i32* %102, align 16
  %104 = icmp sgt i32 %103, 85
  br i1 %104, label %105, label %120

105:                                              ; preds = %98
  %106 = load i32, i32* %3, align 4
  %107 = sext i32 %106 to i64
  %108 = getelementptr inbounds [100 x %struct.student], [100 x %struct.student]* %1, i64 0, i64 %107
  %109 = getelementptr inbounds %struct.student, %struct.student* %108, i32 0, i32 2
  %110 = load i8, i8* %109, align 1
  %111 = sext i8 %110 to i32
  %112 = icmp eq i32 %111, 89
  br i1 %112, label %113, label %120

113:                                              ; preds = %105
  %114 = load i32, i32* %3, align 4
  %115 = sext i32 %114 to i64
  %116 = getelementptr inbounds [100 x %struct.student], [100 x %struct.student]* %1, i64 0, i64 %115
  %117 = getelementptr inbounds %struct.student, %struct.student* %116, i32 0, i32 6
  %118 = load i32, i32* %117, align 4
  %119 = add nsw i32 %118, 1000
  store i32 %119, i32* %117, align 4
  br label %120

120:                                              ; preds = %113, %105, %98
  %121 = load i32, i32* %3, align 4
  %122 = sext i32 %121 to i64
  %123 = getelementptr inbounds [100 x %struct.student], [100 x %struct.student]* %1, i64 0, i64 %122
  %124 = getelementptr inbounds %struct.student, %struct.student* %123, i32 0, i32 4
  %125 = load i32, i32* %124, align 4
  %126 = icmp sgt i32 %125, 80
  br i1 %126, label %127, label %142

127:                                              ; preds = %120
  %128 = load i32, i32* %3, align 4
  %129 = sext i32 %128 to i64
  %130 = getelementptr inbounds [100 x %struct.student], [100 x %struct.student]* %1, i64 0, i64 %129
  %131 = getelementptr inbounds %struct.student, %struct.student* %130, i32 0, i32 1
  %132 = load i8, i8* %131, align 2
  %133 = sext i8 %132 to i32
  %134 = icmp eq i32 %133, 89
  br i1 %134, label %135, label %142

135:                                              ; preds = %127
  %136 = load i32, i32* %3, align 4
  %137 = sext i32 %136 to i64
  %138 = getelementptr inbounds [100 x %struct.student], [100 x %struct.student]* %1, i64 0, i64 %137
  %139 = getelementptr inbounds %struct.student, %struct.student* %138, i32 0, i32 6
  %140 = load i32, i32* %139, align 4
  %141 = add nsw i32 %140, 850
  store i32 %141, i32* %139, align 4
  br label %142

142:                                              ; preds = %135, %127, %120
  br label %143

143:                                              ; preds = %142
  %144 = load i32, i32* %3, align 4
  %145 = add nsw i32 %144, 1
  store i32 %145, i32* %3, align 4
  br label %8

146:                                              ; preds = %8
  store i32 0, i32* %3, align 4
  br label %147

147:                                              ; preds = %183, %146
  %148 = load i32, i32* %3, align 4
  %149 = load i32, i32* %2, align 4
  %150 = icmp slt i32 %148, %149
  br i1 %150, label %151, label %186

151:                                              ; preds = %147
  %152 = load i32, i32* %3, align 4
  %153 = sext i32 %152 to i64
  %154 = getelementptr inbounds [100 x %struct.student], [100 x %struct.student]* %1, i64 0, i64 %153
  %155 = getelementptr inbounds %struct.student, %struct.student* %154, i32 0, i32 6
  %156 = load i32, i32* %155, align 4
  %157 = sext i32 %156 to i64
  %158 = load i64, i64* %4, align 8
  %159 = add nsw i64 %158, %157
  store i64 %159, i64* %4, align 8
  %160 = load i32, i32* %3, align 4
  %161 = sext i32 %160 to i64
  %162 = getelementptr inbounds [100 x %struct.student], [100 x %struct.student]* %1, i64 0, i64 %161
  %163 = getelementptr inbounds %struct.student, %struct.student* %162, i32 0, i32 6
  %164 = load i32, i32* %163, align 4
  %165 = sext i32 %164 to i64
  %166 = load i64, i64* %5, align 8
  %167 = icmp sgt i64 %165, %166
  br i1 %167, label %168, label %182

168:                                              ; preds = %151
  %169 = load i32, i32* %3, align 4
  %170 = sext i32 %169 to i64
  %171 = getelementptr inbounds [100 x %struct.student], [100 x %struct.student]* %1, i64 0, i64 %170
  %172 = getelementptr inbounds %struct.student, %struct.student* %171, i32 0, i32 6
  %173 = load i32, i32* %172, align 4
  %174 = sext i32 %173 to i64
  store i64 %174, i64* %5, align 8
  %175 = getelementptr inbounds [30 x i8], [30 x i8]* %6, i64 0, i64 0
  %176 = load i32, i32* %3, align 4
  %177 = sext i32 %176 to i64
  %178 = getelementptr inbounds [100 x %struct.student], [100 x %struct.student]* %1, i64 0, i64 %177
  %179 = getelementptr inbounds %struct.student, %struct.student* %178, i32 0, i32 0
  %180 = getelementptr inbounds [30 x i8], [30 x i8]* %179, i64 0, i64 0
  %181 = call i8* @strcpy(i8* %175, i8* %180) #3
  br label %182

182:                                              ; preds = %168, %151
  br label %183

183:                                              ; preds = %182
  %184 = load i32, i32* %3, align 4
  %185 = add nsw i32 %184, 1
  store i32 %185, i32* %3, align 4
  br label %147

186:                                              ; preds = %147
  %187 = getelementptr inbounds [30 x i8], [30 x i8]* %6, i64 0, i64 0
  %188 = load i64, i64* %5, align 8
  %189 = load i64, i64* %4, align 8
  %190 = call i32 (i8*, ...) @printf(i8* getelementptr inbounds ([11 x i8], [11 x i8]* @.str.2, i64 0, i64 0), i8* %187, i64 %188, i64 %189)
  ret void
}

declare dso_local i32 @__isoc99_scanf(i8*, ...) #1

; Function Attrs: nounwind
declare dso_local i8* @strcpy(i8*, i8*) #2

declare dso_local i32 @printf(i8*, ...) #1


!llvm.module.flags = !{!0}
!llvm.ident = !{!1}

!0 = !{i32 1, !"wchar_size", i32 4}
!1 = !{!"clang version 10.0.0-4ubuntu1 "}
